; Function Attrs: mustprogress nounwind uwtable
define void @_ZN6icu_7722FormattedStringBuilderD2Ev(ptr noundef nonnull readonly align 8 captures(none) dereferenceable(136) %0) unnamed_addr #1 align 2 personality ptr @__gxx_personality_v0 {
  %2 = load i8, ptr %0, align 8, !tbaa !3, !range !11, !noundef !12
  %3 = trunc nuw i8 %2 to i1
  br i1 %3, label %4, label %10

4:                                                ; preds = %1
  %5 = getelementptr inbounds nuw i8, ptr %0, i64 8
  %6 = load ptr, ptr %5, align 8, !tbaa !13
  invoke void @uprv_free_77(ptr noundef %6)
          to label %7 unwind label %11

7:                                                ; preds = %4
  %8 = getelementptr inbounds nuw i8, ptr %0, i64 88
  %9 = load ptr, ptr %8, align 8, !tbaa !13
  invoke void @uprv_free_77(ptr noundef %9)
          to label %10 unwind label %11

10:                                               ; preds = %7, %1
  ret void

11:                                               ; preds = %7, %4
  %12 = landingpad { ptr, i32 }
          catch ptr null
  %13 = extractvalue { ptr, i32 } %12, 0
  tail call void @__clang_call_terminate(ptr %13) #14
  unreachable
}